target datalayout = "e-m:e-p270:32:32-p271:32:32-p272:64:64-i64:64-i128:128-f80:128-n8:16:32:64-S128"
target triple = "x86_64-pc-linux-gnu"

%"class.cv::Mat" = type { i32, i32, i32, i32, ptr, ptr, ptr, ptr, ptr, ptr, %"struct.cv::MatSize", %"struct.cv::MatStep" }
%"struct.cv::MatSize" = type { ptr }
%"struct.cv::MatStep" = type { ptr, [2 x i64] }
%"class.cv::Range" = type { i32, i32 }
%class.anon = type { ptr, ptr, ptr, ptr, ptr }

; Function Attrs: alwaysinline mustprogress nounwind uwtable
define internal noundef i32 @_ZL14_mm_cvtsd_si32Dv2_d(<2 x double> noundef %0) #12 {
  %2 = alloca <2 x double>, align 16
  store <2 x double> %0, ptr %2, align 16, !tbaa !45
  %3 = load <2 x double>, ptr %2, align 16, !tbaa !45
  %4 = call i32 @llvm.x86.sse2.cvtsd2si(<2 x double> %3)
  ret i32 %4
}

; Function Attrs: alwaysinline mustprogress nounwind uwtable
define internal noundef <2 x double> @_ZL10_mm_set_sdd(double noundef %0) #12 {
  %2 = alloca double, align 8
  %3 = alloca <2 x double>, align 16
  store double %0, ptr %2, align 8, !tbaa !14
  %4 = load double, ptr %2, align 8, !tbaa !14
  %5 = insertelement <2 x double> poison, double %4, i32 0
  %6 = insertelement <2 x double> %5, double 0.000000e+00, i32 1
  store <2 x double> %6, ptr %3, align 16, !tbaa !45
  %7 = load <2 x double>, ptr %3, align 16, !tbaa !45
  ret <2 x double> %7
}

; Function Attrs: inlinehint mustprogress nounwind uwtable
define internal noundef zeroext i8 @_ZN2cvL13saturate_castIhEET_i(i32 noundef %0) #9 {
  %2 = alloca i32, align 4
  store i32 %0, ptr %2, align 4, !tbaa !4
  %3 = load i32, ptr %2, align 4, !tbaa !4
  %4 = icmp ule i32 %3, 255
  br i1 %4, label %5, label %7

5:                                                ; preds = %1
  %6 = load i32, ptr %2, align 4, !tbaa !4
  br label %11

7:                                                ; preds = %1
  %8 = load i32, ptr %2, align 4, !tbaa !4
  %9 = icmp sgt i32 %8, 0
  %10 = select i1 %9, i32 255, i32 0
  br label %11

11:                                               ; preds = %7, %5
  %12 = phi i32 [ %6, %5 ], [ %10, %7 ]
  %13 = trunc i32 %12 to i8
  ret i8 %13
}

; Function Attrs: inlinehint mustprogress uwtable
define internal noundef i32 @_ZL7cvRoundd(double noundef %0) #11 {
  %2 = alloca double, align 8
  %3 = alloca <2 x double>, align 16
  store double %0, ptr %2, align 8, !tbaa !14
  call void @llvm.lifetime.start.p0(i64 16, ptr %3) #3
  %4 = load double, ptr %2, align 8, !tbaa !14
  %5 = call noundef <2 x double> @_ZL10_mm_set_sdd(double noundef %4)
  store <2 x double> %5, ptr %3, align 16, !tbaa !45
  %6 = load <2 x double>, ptr %3, align 16, !tbaa !45
  %7 = call noundef i32 @_ZL14_mm_cvtsd_si32Dv2_d(<2 x double> noundef %6)
  call void @llvm.lifetime.end.p0(i64 16, ptr %3) #3
  ret i32 %7
}

; Function Attrs: inlinehint mustprogress uwtable
define internal noundef zeroext i8 @_ZN2cvL13saturate_castIhEET_d(double noundef %0) #8 {
  %2 = alloca double, align 8
  %3 = alloca i32, align 4
  store double %0, ptr %2, align 8, !tbaa !14
  call void @llvm.lifetime.start.p0(i64 4, ptr %3) #3
  %4 = load double, ptr %2, align 8, !tbaa !14
  %5 = call noundef i32 @_ZL7cvRoundd(double noundef %4)
  store i32 %5, ptr %3, align 4, !tbaa !4
  %6 = load i32, ptr %3, align 4, !tbaa !4
  %7 = call noundef zeroext i8 @_ZN2cvL13saturate_castIhEET_i(i32 noundef %6)
  call void @llvm.lifetime.end.p0(i64 4, ptr %3) #3
  ret i8 %7
}

; Function Attrs: inlinehint mustprogress nounwind uwtable
define linkonce_odr hidden noundef ptr @_ZN2cv3Mat3ptrIdEEPT_i(ptr noundef nonnull align 8 dereferenceable(96) %0, i32 noundef %1) #9 comdat align 2 {
  %3 = alloca ptr, align 8
  %4 = alloca i32, align 4
  store ptr %0, ptr %3, align 8, !tbaa !27
  store i32 %1, ptr %4, align 4, !tbaa !4
  %5 = load ptr, ptr %3, align 8
  %6 = getelementptr inbounds nuw %"class.cv::Mat", ptr %5, i32 0, i32 4
  %7 = load ptr, ptr %6, align 8, !tbaa !65
  %8 = getelementptr inbounds nuw %"class.cv::Mat", ptr %5, i32 0, i32 11
  %9 = getelementptr inbounds nuw %"struct.cv::MatStep", ptr %8, i32 0, i32 0
  %10 = load ptr, ptr %9, align 8, !tbaa !66
  %11 = getelementptr inbounds i64, ptr %10, i64 0
  %12 = load i64, ptr %11, align 8, !tbaa !67
  %13 = load i32, ptr %4, align 4, !tbaa !4
  %14 = sext i32 %13 to i64
  %15 = mul i64 %12, %14
  %16 = getelementptr inbounds nuw i8, ptr %7, i64 %15
  ret ptr %16
}

; Function Attrs: inlinehint mustprogress nounwind uwtable
define linkonce_odr hidden noundef ptr @_ZN2cv3Mat3ptrEi(ptr noundef nonnull align 8 dereferenceable(96) %0, i32 noundef %1) #9 comdat align 2 {
  %3 = alloca ptr, align 8
  %4 = alloca i32, align 4
  store ptr %0, ptr %3, align 8, !tbaa !27
  store i32 %1, ptr %4, align 4, !tbaa !4
  %5 = load ptr, ptr %3, align 8
  %6 = getelementptr inbounds nuw %"class.cv::Mat", ptr %5, i32 0, i32 4
  %7 = load ptr, ptr %6, align 8, !tbaa !65
  %8 = getelementptr inbounds nuw %"class.cv::Mat", ptr %5, i32 0, i32 11
  %9 = getelementptr inbounds nuw %"struct.cv::MatStep", ptr %8, i32 0, i32 0
  %10 = load ptr, ptr %9, align 8, !tbaa !66
  %11 = getelementptr inbounds i64, ptr %10, i64 0
  %12 = load i64, ptr %11, align 8, !tbaa !67
  %13 = load i32, ptr %4, align 4, !tbaa !4
  %14 = sext i32 %13 to i64
  %15 = mul i64 %12, %14
  %16 = getelementptr inbounds nuw i8, ptr %7, i64 %15
  ret ptr %16
}

; Function Attrs: inlinehint mustprogress uwtable
define internal void @"_ZZN12_GLOBAL__N_113conv_parallelEN2cv3MatERS1_S1_ENK3$_0clERKNS0_5RangeE"(ptr noundef nonnull align 8 dereferenceable(40) %0, ptr noundef nonnull align 4 dereferenceable(8) %1) #8 align 2 {
  %3 = alloca ptr, align 8
  %4 = alloca ptr, align 8
  %5 = alloca i32, align 4
  %6 = alloca i32, align 4
  %7 = alloca i32, align 4
  %8 = alloca i32, align 4
  %9 = alloca double, align 8
  %10 = alloca i32, align 4
  %11 = alloca ptr, align 8
  %12 = alloca i32, align 4
  store ptr %0, ptr %3, align 8, !tbaa !24
  store ptr %1, ptr %4, align 8, !tbaa !73
  %13 = load ptr, ptr %3, align 8
  call void @llvm.lifetime.start.p0(i64 4, ptr %5) #3
  %14 = load ptr, ptr %4, align 8, !tbaa !73
  %15 = getelementptr inbounds nuw %"class.cv::Range", ptr %14, i32 0, i32 0
  %16 = load i32, ptr %15, align 4, !tbaa !77
  store i32 %16, ptr %5, align 4, !tbaa !4
  br label %17

17:                                               ; preds = %117, %2
  %18 = load i32, ptr %5, align 4, !tbaa !4
  %19 = load ptr, ptr %4, align 8, !tbaa !73
  %20 = getelementptr inbounds nuw %"class.cv::Range", ptr %19, i32 0, i32 1
  %21 = load i32, ptr %20, align 4, !tbaa !79
  %22 = icmp slt i32 %18, %21
  br i1 %22, label %24, label %23

23:                                               ; preds = %17
  store i32 2, ptr %6, align 4
  call void @llvm.lifetime.end.p0(i64 4, ptr %5) #3
  br label %120

24:                                               ; preds = %17
  call void @llvm.lifetime.start.p0(i64 4, ptr %7) #3
  %25 = load i32, ptr %5, align 4, !tbaa !4
  %26 = getelementptr inbounds nuw %class.anon, ptr %13, i32 0, i32 0
  %27 = load ptr, ptr %26, align 8, !tbaa !97
  %28 = load i32, ptr %27, align 4, !tbaa !4
  %29 = sdiv i32 %25, %28
  store i32 %29, ptr %7, align 4, !tbaa !4
  call void @llvm.lifetime.start.p0(i64 4, ptr %8) #3
  %30 = load i32, ptr %5, align 4, !tbaa !4
  %31 = getelementptr inbounds nuw %class.anon, ptr %13, i32 0, i32 0
  %32 = load ptr, ptr %31, align 8, !tbaa !97
  %33 = load i32, ptr %32, align 4, !tbaa !4
  %34 = srem i32 %30, %33
  store i32 %34, ptr %8, align 4, !tbaa !4
  call void @llvm.lifetime.start.p0(i64 8, ptr %9) #3
  store double 0.000000e+00, ptr %9, align 8, !tbaa !14
  call void @llvm.lifetime.start.p0(i64 4, ptr %10) #3
  %35 = getelementptr inbounds nuw %class.anon, ptr %13, i32 0, i32 1
  %36 = load ptr, ptr %35, align 8, !tbaa !99
  %37 = load i32, ptr %36, align 4, !tbaa !4
  %38 = sub nsw i32 0, %37
  store i32 %38, ptr %10, align 4, !tbaa !4
  br label %39

39:                                               ; preds = %104, %24
  %40 = load i32, ptr %10, align 4, !tbaa !4
  %41 = getelementptr inbounds nuw %class.anon, ptr %13, i32 0, i32 1
  %42 = load ptr, ptr %41, align 8, !tbaa !99
  %43 = load i32, ptr %42, align 4, !tbaa !4
  %44 = icmp sle i32 %40, %43
  br i1 %44, label %46, label %45

45:                                               ; preds = %39
  store i32 5, ptr %6, align 4
  call void @llvm.lifetime.end.p0(i64 4, ptr %10) #3
  br label %107

46:                                               ; preds = %39
  call void @llvm.lifetime.start.p0(i64 8, ptr %11) #3
  %47 = getelementptr inbounds nuw %class.anon, ptr %13, i32 0, i32 2
  %48 = load ptr, ptr %47, align 8, !tbaa !100
  %49 = load i32, ptr %7, align 4, !tbaa !4
  %50 = getelementptr inbounds nuw %class.anon, ptr %13, i32 0, i32 1
  %51 = load ptr, ptr %50, align 8, !tbaa !99
  %52 = load i32, ptr %51, align 4, !tbaa !4
  %53 = add nsw i32 %49, %52
  %54 = load i32, ptr %10, align 4, !tbaa !4
  %55 = add nsw i32 %53, %54
  %56 = call noundef ptr @_ZN2cv3Mat3ptrEi(ptr noundef nonnull align 8 dereferenceable(96) %48, i32 noundef %55)
  store ptr %56, ptr %11, align 8, !tbaa !12
  call void @llvm.lifetime.start.p0(i64 4, ptr %12) #3
  %57 = getelementptr inbounds nuw %class.anon, ptr %13, i32 0, i32 1
  %58 = load ptr, ptr %57, align 8, !tbaa !99
  %59 = load i32, ptr %58, align 4, !tbaa !4
  %60 = sub nsw i32 0, %59
  store i32 %60, ptr %12, align 4, !tbaa !4
  br label %61

61:                                               ; preds = %100, %46
  %62 = load i32, ptr %12, align 4, !tbaa !4
  %63 = getelementptr inbounds nuw %class.anon, ptr %13, i32 0, i32 1
  %64 = load ptr, ptr %63, align 8, !tbaa !99
  %65 = load i32, ptr %64, align 4, !tbaa !4
  %66 = icmp sle i32 %62, %65
  br i1 %66, label %68, label %67

67:                                               ; preds = %61
  store i32 8, ptr %6, align 4
  call void @llvm.lifetime.end.p0(i64 4, ptr %12) #3
  br label %103

68:                                               ; preds = %61
  %69 = getelementptr inbounds nuw %class.anon, ptr %13, i32 0, i32 3
  %70 = load ptr, ptr %69, align 8, !tbaa !101
  %71 = load i32, ptr %10, align 4, !tbaa !4
  %72 = getelementptr inbounds nuw %class.anon, ptr %13, i32 0, i32 1
  %73 = load ptr, ptr %72, align 8, !tbaa !99
  %74 = load i32, ptr %73, align 4, !tbaa !4
  %75 = add nsw i32 %71, %74
  %76 = call noundef ptr @_ZN2cv3Mat3ptrIdEEPT_i(ptr noundef nonnull align 8 dereferenceable(96) %70, i32 noundef %75)
  %77 = load i32, ptr %12, align 4, !tbaa !4
  %78 = getelementptr inbounds nuw %class.anon, ptr %13, i32 0, i32 1
  %79 = load ptr, ptr %78, align 8, !tbaa !99
  %80 = load i32, ptr %79, align 4, !tbaa !4
  %81 = add nsw i32 %77, %80
  %82 = sext i32 %81 to i64
  %83 = getelementptr inbounds double, ptr %76, i64 %82
  %84 = load double, ptr %83, align 8, !tbaa !14
  %85 = load ptr, ptr %11, align 8, !tbaa !12
  %86 = load i32, ptr %8, align 4, !tbaa !4
  %87 = getelementptr inbounds nuw %class.anon, ptr %13, i32 0, i32 1
  %88 = load ptr, ptr %87, align 8, !tbaa !99
  %89 = load i32, ptr %88, align 4, !tbaa !4
  %90 = add nsw i32 %86, %89
  %91 = load i32, ptr %12, align 4, !tbaa !4
  %92 = add nsw i32 %90, %91
  %93 = sext i32 %92 to i64
  %94 = getelementptr inbounds i8, ptr %85, i64 %93
  %95 = load i8, ptr %94, align 1, !tbaa !45
  %96 = zext i8 %95 to i32
  %97 = sitofp i32 %96 to double
  %98 = load double, ptr %9, align 8, !tbaa !14
  %99 = call double @llvm.fmuladd.f64(double %84, double %97, double %98)
  store double %99, ptr %9, align 8, !tbaa !14
  br label %100

100:                                              ; preds = %68
  %101 = load i32, ptr %12, align 4, !tbaa !4
  %102 = add nsw i32 %101, 1
  store i32 %102, ptr %12, align 4, !tbaa !4
  br label %61, !llvm.loop !102

103:                                              ; preds = %67
  call void @llvm.lifetime.end.p0(i64 8, ptr %11) #3
  br label %104

104:                                              ; preds = %103
  %105 = load i32, ptr %10, align 4, !tbaa !4
  %106 = add nsw i32 %105, 1
  store i32 %106, ptr %10, align 4, !tbaa !4
  br label %39, !llvm.loop !103

107:                                              ; preds = %45
  %108 = load double, ptr %9, align 8, !tbaa !14
  %109 = call noundef zeroext i8 @_ZN2cvL13saturate_castIhEET_d(double noundef %108)
  %110 = getelementptr inbounds nuw %class.anon, ptr %13, i32 0, i32 4
  %111 = load ptr, ptr %110, align 8, !tbaa !104
  %112 = load i32, ptr %7, align 4, !tbaa !4
  %113 = call noundef ptr @_ZN2cv3Mat3ptrEi(ptr noundef nonnull align 8 dereferenceable(96) %111, i32 noundef %112)
  %114 = load i32, ptr %8, align 4, !tbaa !4
  %115 = sext i32 %114 to i64
  %116 = getelementptr inbounds i8, ptr %113, i64 %115
  store i8 %109, ptr %116, align 1, !tbaa !45
  call void @llvm.lifetime.end.p0(i64 8, ptr %9) #3
  call void @llvm.lifetime.end.p0(i64 4, ptr %8) #3
  call void @llvm.lifetime.end.p0(i64 4, ptr %7) #3
  br label %117

117:                                              ; preds = %107
  %118 = load i32, ptr %5, align 4, !tbaa !4
  %119 = add nsw i32 %118, 1
  store i32 %119, ptr %5, align 4, !tbaa !4
  br label %17, !llvm.loop !105

120:                                              ; preds = %23
  ret void
}

; Function Attrs: mustprogress nounwind uwtable
define linkonce_odr hidden noundef ptr @_ZNKSt9_Any_data9_M_accessEv(ptr noundef nonnull align 8 dereferenceable(16) %0) #7 comdat align 2 {
  %2 = alloca ptr, align 8
  store ptr %0, ptr %2, align 8, !tbaa !90
  %3 = load ptr, ptr %2, align 8
  %4 = getelementptr inbounds [16 x i8], ptr %3, i64 0, i64 0
  ret ptr %4
}

; Function Attrs: mustprogress uwtable
define internal void @"_ZSt13__invoke_implIvRZN12_GLOBAL__N_113conv_parallelEN2cv3MatERS2_S2_E3$_0JRKNS1_5RangeEEET_St14__invoke_otherOT0_DpOT1_"(ptr noundef nonnull align 8 dereferenceable(40) %0, ptr noundef nonnull align 4 dereferenceable(8) %1) #5 {
  %3 = alloca ptr, align 8
  %4 = alloca ptr, align 8
  store ptr %0, ptr %3, align 8, !tbaa !24
  store ptr %1, ptr %4, align 8, !tbaa !73
  %5 = load ptr, ptr %3, align 8, !tbaa !24
  %6 = load ptr, ptr %4, align 8, !tbaa !73
  call void @"_ZZN12_GLOBAL__N_113conv_parallelEN2cv3MatERS1_S1_ENK3$_0clERKNS0_5RangeE"(ptr noundef nonnull align 8 dereferenceable(40) %5, ptr noundef nonnull align 4 dereferenceable(8) %6)
  ret void
}

; Function Attrs: mustprogress nounwind uwtable
define internal noundef nonnull align 8 dereferenceable(8) ptr @"_ZNKSt9_Any_data9_M_accessIPZN12_GLOBAL__N_113conv_parallelEN2cv3MatERS3_S3_E3$_0EERKT_v"(ptr noundef nonnull align 8 dereferenceable(16) %0) #7 align 2 {
  %2 = alloca ptr, align 8
  store ptr %0, ptr %2, align 8, !tbaa !90
  %3 = load ptr, ptr %2, align 8
  %4 = call noundef ptr @_ZNKSt9_Any_data9_M_accessEv(ptr noundef nonnull align 8 dereferenceable(16) %3) #3
  ret ptr %4
}

; Function Attrs: mustprogress uwtable
define internal void @"_ZSt10__invoke_rIvRZN12_GLOBAL__N_113conv_parallelEN2cv3MatERS2_S2_E3$_0JRKNS1_5RangeEEENSt9enable_ifIXsr6__and_ISt7is_voidIT_ESt14__is_invocableIT0_JDpT1_EEEE5valueESB_E4typeEOSE_DpOSF_"(ptr noundef nonnull align 8 dereferenceable(40) %0, ptr noundef nonnull align 4 dereferenceable(8) %1) #5 {
  %3 = alloca ptr, align 8
  %4 = alloca ptr, align 8
  store ptr %0, ptr %3, align 8, !tbaa !24
  store ptr %1, ptr %4, align 8, !tbaa !73
  %5 = load ptr, ptr %3, align 8, !tbaa !24
  %6 = load ptr, ptr %4, align 8, !tbaa !73
  call void @"_ZSt13__invoke_implIvRZN12_GLOBAL__N_113conv_parallelEN2cv3MatERS2_S2_E3$_0JRKNS1_5RangeEEET_St14__invoke_otherOT0_DpOT1_"(ptr noundef nonnull align 8 dereferenceable(40) %5, ptr noundef nonnull align 4 dereferenceable(8) %6)
  ret void
}

; Function Attrs: mustprogress nounwind uwtable
define internal noundef ptr @"_ZNSt14_Function_base13_Base_managerIZN12_GLOBAL__N_113conv_parallelEN2cv3MatERS3_S3_E3$_0E14_M_get_pointerERKSt9_Any_data"(ptr noundef nonnull align 8 dereferenceable(16) %0) #7 align 2 {
  %2 = alloca ptr, align 8
  store ptr %0, ptr %2, align 8, !tbaa !90
  %3 = load ptr, ptr %2, align 8, !tbaa !90
  %4 = call noundef nonnull align 8 dereferenceable(8) ptr @"_ZNKSt9_Any_data9_M_accessIPZN12_GLOBAL__N_113conv_parallelEN2cv3MatERS3_S3_E3$_0EERKT_v"(ptr noundef nonnull align 8 dereferenceable(16) %3) #3
  %5 = load ptr, ptr %4, align 8, !tbaa !24
  ret ptr %5
}

; Function Attrs: mustprogress uwtable
define internal void @"_ZNSt17_Function_handlerIFvRKN2cv5RangeEEZN12_GLOBAL__N_113conv_parallelENS0_3MatERS6_S6_E3$_0E9_M_invokeERKSt9_Any_dataS3_"(ptr noundef nonnull align 8 dereferenceable(16) %0, ptr noundef nonnull align 4 dereferenceable(8) %1) #5 align 2 {
  %3 = alloca ptr, align 8
  %4 = alloca ptr, align 8
  store ptr %0, ptr %3, align 8, !tbaa !90
  store ptr %1, ptr %4, align 8, !tbaa !73
  %5 = load ptr, ptr %3, align 8, !tbaa !90
  %6 = call noundef ptr @"_ZNSt14_Function_base13_Base_managerIZN12_GLOBAL__N_113conv_parallelEN2cv3MatERS3_S3_E3$_0E14_M_get_pointerERKSt9_Any_data"(ptr noundef nonnull align 8 dereferenceable(16) %5) #3
  %7 = load ptr, ptr %4, align 8, !tbaa !73
  call void @"_ZSt10__invoke_rIvRZN12_GLOBAL__N_113conv_parallelEN2cv3MatERS2_S2_E3$_0JRKNS1_5RangeEEENSt9enable_ifIXsr6__and_ISt7is_voidIT_ESt14__is_invocableIT0_JDpT1_EEEE5valueESB_E4typeEOSE_DpOSF_"(ptr noundef nonnull align 8 dereferenceable(40) %6, ptr noundef nonnull align 4 dereferenceable(8) %7)
  ret void
}