; Function Attrs: mustprogress nofree norecurse nosync nounwind memory(readwrite, inaccessiblemem: none) uwtable
define internal void @"_ZNSt17_Function_handlerIFvRKN2cv5RangeEEZN12_GLOBAL__N_113conv_parallelENS0_3MatERS6_S6_E3$_0E9_M_invokeERKSt9_Any_dataS3_"(ptr noundef nonnull readonly align 8 captures(none) dereferenceable(16) %0, ptr noundef nonnull readonly align 4 captures(none) dereferenceable(8) %1) #15 align 2 {
  %.val = load ptr, ptr %0, align 8, !tbaa !86
  %3 = load i32, ptr %1, align 4, !tbaa !81
  %4 = getelementptr inbounds nuw i8, ptr %1, i64 4
  %5 = load i32, ptr %4, align 4, !tbaa !83
  %6 = icmp slt i32 %3, %5
  br i1 %6, label %.lr.ph39.i.i.i, label %"_ZSt10__invoke_rIvRZN12_GLOBAL__N_113conv_parallelEN2cv3MatERS2_S2_E3$_0JRKNS1_5RangeEEENSt9enable_ifIXsr6__and_ISt7is_voidIT_ESt14__is_invocableIT0_JDpT1_EEEE5valueESB_E4typeEOSE_DpOSF_.exit"

.lr.ph39.i.i.i:                                   ; preds = %2
  %7 = getelementptr inbounds nuw i8, ptr %.val, i64 8
  %8 = getelementptr inbounds nuw i8, ptr %.val, i64 16
  %9 = getelementptr inbounds nuw i8, ptr %.val, i64 24
  %10 = getelementptr inbounds nuw i8, ptr %.val, i64 32
  br label %11

11:                                               ; preds = %._crit_edge35.split.i.i.i, %.lr.ph39.i.i.i
  %.02137.i.i.i = phi i32 [ %3, %.lr.ph39.i.i.i ], [ %54, %._crit_edge35.split.i.i.i ]
  %12 = load ptr, ptr %.val, align 8, !tbaa !91
  %13 = load i32, ptr %12, align 4, !tbaa !80
  %14 = sdiv i32 %.02137.i.i.i, %13
  %15 = srem i32 %.02137.i.i.i, %13
  %16 = load ptr, ptr %7, align 8, !tbaa !93
  %17 = load i32, ptr %16, align 4, !tbaa !80
  %.not30.i.i.i = icmp slt i32 %17, 0
  br i1 %.not30.i.i.i, label %._crit_edge35.split.i.i.i, label %.lr.ph34.i.i.i

.lr.ph34.i.i.i:                                   ; preds = %11
  %18 = sub nsw i32 0, %17
  %19 = load ptr, ptr %8, align 8, !tbaa !94
  %20 = add nsw i32 %17, %14
  %21 = getelementptr inbounds nuw i8, ptr %19, i64 16
  %22 = load ptr, ptr %21, align 8, !tbaa !73
  %23 = getelementptr inbounds nuw i8, ptr %19, i64 72
  %24 = load ptr, ptr %23, align 8, !tbaa !74
  %25 = load i64, ptr %24, align 8, !tbaa !39
  %26 = load ptr, ptr %9, align 8
  %27 = getelementptr inbounds nuw i8, ptr %26, i64 16
  %28 = getelementptr inbounds nuw i8, ptr %26, i64 72
  %29 = add nsw i32 %17, %15
  %30 = load ptr, ptr %27, align 8, !tbaa !73
  %31 = load ptr, ptr %28, align 8, !tbaa !74
  %32 = load i64, ptr %31, align 8, !tbaa !39
  %33 = sext i32 %18 to i64
  %34 = zext nneg i32 %17 to i64
  %35 = sext i32 %29 to i64
  %36 = add nuw i32 %17, 1
  %37 = sext i32 %20 to i64
  %invariant.gep49.i.i.i = getelementptr double, ptr %30, i64 %34
  %invariant.gep.i.i.i = getelementptr i8, ptr %22, i64 %35
  br label %.lr.ph.i.i.i

._crit_edge35.split.i.i.i:                        ; preds = %._crit_edge.i.i.i, %11
  %.023.lcssa.i.i.i = phi double [ 0.000000e+00, %11 ], [ %65, %._crit_edge.i.i.i ]
  %38 = insertelement <2 x double> poison, double %.023.lcssa.i.i.i, i64 0
  %39 = tail call noundef i32 @llvm.x86.sse2.cvtsd2si(<2 x double> %38)
  %40 = tail call i32 @llvm.smax.i32(i32 %39, i32 0)
  %41 = tail call i32 @llvm.umin.i32(i32 %40, i32 255)
  %42 = trunc nuw i32 %41 to i8
  %43 = load ptr, ptr %10, align 8, !tbaa !95
  %44 = getelementptr inbounds nuw i8, ptr %43, i64 16
  %45 = load ptr, ptr %44, align 8, !tbaa !73
  %46 = getelementptr inbounds nuw i8, ptr %43, i64 72
  %47 = load ptr, ptr %46, align 8, !tbaa !74
  %48 = load i64, ptr %47, align 8, !tbaa !39
  %49 = sext i32 %14 to i64
  %50 = mul i64 %48, %49
  %51 = getelementptr inbounds nuw i8, ptr %45, i64 %50
  %52 = sext i32 %15 to i64
  %53 = getelementptr inbounds i8, ptr %51, i64 %52
  store i8 %42, ptr %53, align 1, !tbaa !35
  %54 = add nsw i32 %.02137.i.i.i, 1
  %55 = load i32, ptr %4, align 4, !tbaa !83
  %56 = icmp slt i32 %54, %55
  br i1 %56, label %11, label %"_ZSt10__invoke_rIvRZN12_GLOBAL__N_113conv_parallelEN2cv3MatERS2_S2_E3$_0JRKNS1_5RangeEEENSt9enable_ifIXsr6__and_ISt7is_voidIT_ESt14__is_invocableIT0_JDpT1_EEEE5valueESB_E4typeEOSE_DpOSF_.exit", !llvm.loop !96

.lr.ph.i.i.i:                                     ; preds = %._crit_edge.i.i.i, %.lr.ph34.i.i.i
  %indvars.iv42.i.i.i = phi i64 [ %33, %.lr.ph34.i.i.i ], [ %indvars.iv.next43.i.i.i, %._crit_edge.i.i.i ]
  %.02331.i.i.i = phi double [ 0.000000e+00, %.lr.ph34.i.i.i ], [ %65, %._crit_edge.i.i.i ]
  %57 = add nsw i64 %indvars.iv42.i.i.i, %37
  %58 = mul i64 %57, %25
  %59 = add nsw i64 %indvars.iv42.i.i.i, %34
  %60 = mul i64 %59, %32
  %gep50.i.i.i = getelementptr i8, ptr %invariant.gep49.i.i.i, i64 %60
  %gep51.i.i.i = getelementptr i8, ptr %invariant.gep.i.i.i, i64 %58
  br label %61

._crit_edge.i.i.i:                                ; preds = %61
  %indvars.iv.next43.i.i.i = add nsw i64 %indvars.iv42.i.i.i, 1
  %lftr.wideiv45.i.i.i = trunc i64 %indvars.iv.next43.i.i.i to i32
  %exitcond46.not.i.i.i = icmp eq i32 %36, %lftr.wideiv45.i.i.i
  br i1 %exitcond46.not.i.i.i, label %._crit_edge35.split.i.i.i, label %.lr.ph.i.i.i, !llvm.loop !97

61:                                               ; preds = %61, %.lr.ph.i.i.i
  %indvars.iv.i.i.i = phi i64 [ %33, %.lr.ph.i.i.i ], [ %indvars.iv.next.i.i.i, %61 ]
  %.128.i.i.i = phi double [ %.02331.i.i.i, %.lr.ph.i.i.i ], [ %65, %61 ]
  %gep.i.i.i = getelementptr double, ptr %gep50.i.i.i, i64 %indvars.iv.i.i.i
  %62 = load double, ptr %gep.i.i.i, align 8, !tbaa !55
  %gep48.i.i.i = getelementptr i8, ptr %gep51.i.i.i, i64 %indvars.iv.i.i.i
  %63 = load i8, ptr %gep48.i.i.i, align 1, !tbaa !35
  %64 = uitofp i8 %63 to double
  %65 = tail call double @llvm.fmuladd.f64(double %62, double %64, double %.128.i.i.i)
  %indvars.iv.next.i.i.i = add nsw i64 %indvars.iv.i.i.i, 1
  %lftr.wideiv.i.i.i = trunc i64 %indvars.iv.next.i.i.i to i32
  %exitcond.not.i.i.i = icmp eq i32 %36, %lftr.wideiv.i.i.i
  br i1 %exitcond.not.i.i.i, label %._crit_edge.i.i.i, label %61, !llvm.loop !98

"_ZSt10__invoke_rIvRZN12_GLOBAL__N_113conv_parallelEN2cv3MatERS2_S2_E3$_0JRKNS1_5RangeEEENSt9enable_ifIXsr6__and_ISt7is_voidIT_ESt14__is_invocableIT0_JDpT1_EEEE5valueESB_E4typeEOSE_DpOSF_.exit": ; preds = %._crit_edge35.split.i.i.i, %2
  ret void
}